; Function Attrs: nounwind uwtable
define dso_local void @archive_entry_copy_mac_metadata(ptr noundef captures(none) initializes((856, 864)) %0, ptr noundef readonly %1, i64 noundef %2) local_unnamed_addr #0 {
  %4 = getelementptr inbounds nuw i8, ptr %0, i64 848
  %5 = load ptr, ptr %4, align 8, !tbaa !4
  tail call void @free(ptr noundef %5) #21
  %6 = icmp eq ptr %1, null
  %7 = icmp eq i64 %2, 0
  %or.cond = or i1 %6, %7
  br i1 %or.cond, label %8, label %9

8:                                                ; preds = %3
  tail call void @llvm.memset.p0.i64(ptr noundef nonnull align 8 dereferenceable(16) %4, i8 0, i64 16, i1 false)
  br label %15

9:                                                ; preds = %3
  %10 = getelementptr inbounds nuw i8, ptr %0, i64 856
  store i64 %2, ptr %10, align 8, !tbaa !24
  %11 = tail call noalias ptr @malloc(i64 noundef %2) #22
  store ptr %11, ptr %4, align 8, !tbaa !4
  %12 = icmp eq ptr %11, null
  br i1 %12, label %13, label %14

13:                                               ; preds = %9
  tail call void @abort() #23
  unreachable

14:                                               ; preds = %9
  tail call void @llvm.memcpy.p0.p0.i64(ptr nonnull align 1 %11, ptr nonnull align 1 %1, i64 %2, i1 false)
  br label %15

15:                                               ; preds = %14, %8
  ret void
}